; Function Attrs: nounwind sspstrong uwtable
define internal i64 @enum_reverse_each(i32 noundef %0, ptr noundef %1, i64 noundef %2) #0 {
  %4 = tail call i32 @rb_block_given_p() #14
  %.not = icmp eq i32 %4, 0
  br i1 %.not, label %5, label %9

5:                                                ; preds = %3
  %6 = tail call i64 @rb_frame_this_func() #14
  %7 = tail call i64 @rb_id2sym(i64 noundef %6) #14
  %8 = tail call i64 @rb_enumeratorize_with_size(i64 noundef %2, i64 noundef %7, i32 noundef %0, ptr noundef %1, ptr noundef nonnull @enum_size) #14
  br label %.loopexit

9:                                                ; preds = %3
  %10 = tail call i64 @rb_ary_new() #14
  %11 = tail call i32 @rb_keyword_given_p() #14
  %12 = icmp ne i32 %11, 0
  %13 = zext i1 %12 to i32
  %14 = tail call i64 @rb_block_call_kw(i64 noundef %2, i64 noundef 3073, i32 noundef %0, ptr noundef %1, ptr noundef nonnull @collect_all, i64 noundef %10, i32 noundef %13) #14
  %15 = inttoptr i64 %10 to ptr
  %16 = load i64, ptr %15, align 8, !tbaa !20
  %17 = and i64 %16, 8192
  %.not.i = icmp eq i64 %17, 0
  br i1 %.not.i, label %21, label %18

18:                                               ; preds = %9
  %19 = lshr i64 %16, 15
  %20 = and i64 %19, 127
  br label %rb_array_len.exit

21:                                               ; preds = %9
  %22 = getelementptr inbounds nuw i8, ptr %15, i64 16
  %23 = load i64, ptr %22, align 8, !tbaa !22
  br label %rb_array_len.exit

rb_array_len.exit:                                ; preds = %18, %21
  %.0.i = phi i64 [ %20, %18 ], [ %23, %21 ]
  %.not1923 = icmp eq i64 %.0.i, 0
  br i1 %.not1923, label %.loopexit, label %.lr.ph

.lr.ph:                                           ; preds = %rb_array_len.exit
  %24 = getelementptr inbounds nuw i8, ptr %15, i64 16
  %25 = getelementptr inbounds nuw i8, ptr %15, i64 32
  br label %26

26:                                               ; preds = %.lr.ph, %rb_array_len.exit22
  %27 = phi i64 [ %16, %.lr.ph ], [ %35, %rb_array_len.exit22 ]
  %.01624 = phi i64 [ %.0.i, %.lr.ph ], [ %spec.select, %rb_array_len.exit22 ]
  %28 = add i64 %.01624, -1
  %29 = and i64 %27, 8192
  %.not.i.i = icmp eq i64 %29, 0
  br i1 %.not.i.i, label %30, label %RARRAY_AREF.exit

30:                                               ; preds = %26
  %31 = load ptr, ptr %25, align 8, !tbaa !22
  br label %RARRAY_AREF.exit

RARRAY_AREF.exit:                                 ; preds = %26, %30
  %.0.i.i = phi ptr [ %31, %30 ], [ %24, %26 ]
  %32 = getelementptr i64, ptr %.0.i.i, i64 %28
  %33 = load i64, ptr %32, align 8, !tbaa !7
  %34 = tail call i64 @rb_yield(i64 noundef %33) #14
  %35 = load i64, ptr %15, align 8, !tbaa !20
  %36 = and i64 %35, 8192
  %.not.i20 = icmp eq i64 %36, 0
  br i1 %.not.i20, label %40, label %37

37:                                               ; preds = %RARRAY_AREF.exit
  %38 = lshr i64 %35, 15
  %39 = and i64 %38, 127
  br label %rb_array_len.exit22

40:                                               ; preds = %RARRAY_AREF.exit
  %41 = load i64, ptr %24, align 8, !tbaa !22
  br label %rb_array_len.exit22

rb_array_len.exit22:                              ; preds = %37, %40
  %.0.i21 = phi i64 [ %39, %37 ], [ %41, %40 ]
  %spec.select = tail call i64 @llvm.smin.i64(i64 %.0.i21, i64 %28)
  %.not19 = icmp eq i64 %spec.select, 0
  br i1 %.not19, label %.loopexit, label %26, !llvm.loop !86

.loopexit:                                        ; preds = %rb_array_len.exit22, %rb_array_len.exit, %5
  %.0 = phi i64 [ %8, %5 ], [ %2, %rb_array_len.exit ], [ %2, %rb_array_len.exit22 ]
  ret i64 %.0
}